; Auto-generated by symbol Table Script
EXPORTS unit-system-base-0
_ZN9sakurajin11unit_system4base11temperatureC1Eee @1
_ZN9sakurajin11unit_system4base11temperatureC1Eeee @2
_ZN9sakurajin11unit_system4base11temperatureC1ENS0_6unit_tILm4EEE @3
_ZN9sakurajin11unit_system4base11temperatureC1Ev @4
_ZN9sakurajin11unit_system4base11temperatureC2Ee @5
_ZN9sakurajin11unit_system4base11temperatureC2Eee @6
_ZN9sakurajin11unit_system4base11temperatureC2Eeee @7
_ZN9sakurajin11unit_system4base11temperatureC2ENS0_6unit_tILm4EEE @8
_ZN9sakurajin11unit_system4base11temperatureC2Ev @9
_ZN9sakurajin11unit_system4base16electric_currentC1Ee @10
_ZN9sakurajin11unit_system4base16electric_currentC1Eee @11
_ZN9sakurajin11unit_system4base16electric_currentC1ENS0_6unit_tILm6EEE @12
_ZN9sakurajin11unit_system4base16electric_currentC1Ev @13
_ZN9sakurajin11unit_system4base16electric_currentC2Ee @14
_ZN9sakurajin11unit_system4base16electric_currentC2Eee @15
_ZN9sakurajin11unit_system4base16electric_currentC2ENS0_6unit_tILm6EEE @16
_ZN9sakurajin11unit_system4base16electric_currentC2Ev @17
_ZN9sakurajin11unit_system4base18luminous_intensityC1Ee @18
_ZN9sakurajin11unit_system4base18luminous_intensityC1Eee @19
_ZN9sakurajin11unit_system4base18luminous_intensityC1ENS0_6unit_tILm7EEE @20
_ZN9sakurajin11unit_system4base18luminous_intensityC1Ev @21
_ZN9sakurajin11unit_system4base18luminous_intensityC2Ee @22
_ZN9sakurajin11unit_system4base18luminous_intensityC2Eee @23
_ZN9sakurajin11unit_system4base18luminous_intensityC2ENS0_6unit_tILm7EEE @24
_ZN9sakurajin11unit_system4base18luminous_intensityC2Ev @25
_ZN9sakurajin11unit_system4base4massC1Ee @26
_ZN9sakurajin11unit_system4base4massC1Eee @27
_ZN9sakurajin11unit_system4base4massC1ENS0_6unit_tILm3EEE @28
_ZN9sakurajin11unit_system4base4massC1Ev @29
_ZN9sakurajin11unit_system4base4massC2Ee @30
_ZN9sakurajin11unit_system4base4massC2Eee @31
_ZN9sakurajin11unit_system4base4massC2ENS0_6unit_tILm3EEE @32
_ZN9sakurajin11unit_system4base4massC2Ev @33
_ZN9sakurajin11unit_system4base6amountC1Ee @34
_ZN9sakurajin11unit_system4base6amountC1Eee @35
_ZN9sakurajin11unit_system4base6amountC1ENS0_6unit_tILm5EEE @36
_ZN9sakurajin11unit_system4base6amountC1Ev @37
_ZN9sakurajin11unit_system4base6amountC2Ee @38
_ZN9sakurajin11unit_system4base6amountC2Eee @39
_ZN9sakurajin11unit_system4base6amountC2ENS0_6unit_tILm5EEE @40
_ZN9sakurajin11unit_system4base6amountC2Ev @41
_ZN9sakurajin11unit_system4base6lengthC1Ee @42
_ZN9sakurajin11unit_system4base6lengthC1Eee @43
_ZN9sakurajin11unit_system4base6lengthC1ENS0_6unit_tILm2EEE @44
_ZN9sakurajin11unit_system4base6lengthC1Ev @45
_ZN9sakurajin11unit_system4base6lengthC2Ee @46
_ZN9sakurajin11unit_system4base6lengthC2Eee @47
_ZN9sakurajin11unit_system4base6lengthC2ENS0_6unit_tILm2EEE @48
_ZN9sakurajin11unit_system4base6lengthC2Ev @49
_ZN9sakurajin11unit_system4base7time_siC1Ee @50
_ZN9sakurajin11unit_system4base7time_siC1Eee @51
_ZN9sakurajin11unit_system4base7time_siC1ENS0_6unit_tILm1EEE @52
_ZN9sakurajin11unit_system4base7time_siC1Ev @53
_ZN9sakurajin11unit_system4base7time_siC2Ee @54
_ZN9sakurajin11unit_system4base7time_siC2Eee @55
_ZN9sakurajin11unit_system4base7time_siC2ENS0_6unit_tILm1EEE @56
_ZN9sakurajin11unit_system4base7time_siC2Ev @57
_ZN9sakurajin11unit_system4base8literalsli2_aEe @58
_ZN9sakurajin11unit_system4base8literalsli2_AEe @59
_ZN9sakurajin11unit_system4base8literalsli2_aEy @60
_ZN9sakurajin11unit_system4base8literalsli2_AEy @61
_ZN9sakurajin11unit_system4base8literalsli2_CEe @62
_ZN9sakurajin11unit_system4base8literalsli2_CEy @63
_ZN9sakurajin11unit_system4base8literalsli2_dEe @64
_ZN9sakurajin11unit_system4base8literalsli2_dEy @65
_ZN9sakurajin11unit_system4base8literalsli2_gEe @66
_ZN9sakurajin11unit_system4base8literalsli2_gEy @67
_ZN9sakurajin11unit_system4base8literalsli2_hEe @68
_ZN9sakurajin11unit_system4base8literalsli2_hEy @69
_ZN9sakurajin11unit_system4base8literalsli2_KEe @70
_ZN9sakurajin11unit_system4base8literalsli2_KEy @71
_ZN9sakurajin11unit_system4base8literalsli2_mEe @72
_ZN9sakurajin11unit_system4base8literalsli2_mEy @73
_ZN9sakurajin11unit_system4base8literalsli2_sEe @74
_ZN9sakurajin11unit_system4base8literalsli2_sEy @75
_ZN9sakurajin11unit_system4base8literalsli2_tEe @76
_ZN9sakurajin11unit_system4base8literalsli2_tEy @77
_ZN9sakurajin11unit_system4base8literalsli3_cdEe @78
_ZN9sakurajin11unit_system4base8literalsli3_cdEy @79
_ZN9sakurajin11unit_system4base8literalsli3_cmEe @80
_ZN9sakurajin11unit_system4base8literalsli3_cmEy @81
_ZN9sakurajin11unit_system4base8literalsli3_dmEe @82
_ZN9sakurajin11unit_system4base8literalsli3_dmEy @83
_ZN9sakurajin11unit_system4base8literalsli3_fsEe @84
_ZN9sakurajin11unit_system4base8literalsli3_fsEy @85
_ZN9sakurajin11unit_system4base8literalsli3_kAEe @86
_ZN9sakurajin11unit_system4base8literalsli3_kAEy @87
_ZN9sakurajin11unit_system4base8literalsli3_kgEe @88
_ZN9sakurajin11unit_system4base8literalsli3_kgEy @89
_ZN9sakurajin11unit_system4base8literalsli3_kmEe @90
_ZN9sakurajin11unit_system4base8literalsli3_kmEy @91
_ZN9sakurajin11unit_system4base8literalsli3_mAEe @92
_ZN9sakurajin11unit_system4base8literalsli3_MAEe @93
_ZN9sakurajin11unit_system4base8literalsli3_mAEy @94
_ZN9sakurajin11unit_system4base8literalsli3_MAEy @95
_ZN9sakurajin11unit_system4base8literalsli3_mgEe @96
_ZN9sakurajin11unit_system4base8literalsli3_mgEy @97
_ZN9sakurajin11unit_system4base8literalsli3_mmEe @98
_ZN9sakurajin11unit_system4base8literalsli3_mmEy @99
_ZN9sakurajin11unit_system4base8literalsli3_msEe @100
_ZN9sakurajin11unit_system4base8literalsli3_msEy @101
_ZN9sakurajin11unit_system4base8literalsli3_nAEe @102
_ZN9sakurajin11unit_system4base8literalsli3_nAEy @103
_ZN9sakurajin11unit_system4base8literalsli3_nmEe @104
_ZN9sakurajin11unit_system4base8literalsli3_nmEy @105
_ZN9sakurajin11unit_system4base8literalsli3_nsEe @106
_ZN9sakurajin11unit_system4base8literalsli3_nsEy @107
_ZN9sakurajin11unit_system4base8literalsli3_uAEe @108
_ZN9sakurajin11unit_system4base8literalsli3_uAEy @109
_ZN9sakurajin11unit_system4base8literalsli3_ugEe @110
_ZN9sakurajin11unit_system4base8literalsli3_ugEy @111
_ZN9sakurajin11unit_system4base8literalsli3_umEe @112
_ZN9sakurajin11unit_system4base8literalsli3_umEy @113
_ZN9sakurajin11unit_system4base8literalsli3_usEe @114
_ZN9sakurajin11unit_system4base8literalsli3_usEy @115
_ZN9sakurajin11unit_system4base8literalsli4_minEe @116
_ZN9sakurajin11unit_system4base8literalsli4_minEy @117
_ZN9sakurajin11unit_system4base8literalsli4_molEe @118
_ZN9sakurajin11unit_system4base8literalsli4_molEy @119
_ZN9sakurajin11unit_system4base8literalsli7_thingsEe @120
_ZN9sakurajin11unit_system4base8literalsli7_thingsEy @121
_ZN9sakurajin11unit_system4baselsERSoRKNS1_11temperatureE @122
_ZN9sakurajin11unit_system4baselsERSoRKNS1_16electric_currentE @123
_ZN9sakurajin11unit_system4baselsERSoRKNS1_18luminous_intensityE @124
_ZN9sakurajin11unit_system4baselsERSoRKNS1_4massE @125
_ZN9sakurajin11unit_system4baselsERSoRKNS1_6amountE @126
_ZN9sakurajin11unit_system4baselsERSoRKNS1_6lengthE @127
_ZN9sakurajin11unit_system4baselsERSoRKNS1_7time_siE @128
_ZN9sakurajin11unit_system6unit_tILm1EEC2Eee @129
_ZN9sakurajin11unit_system6unit_tILm1EEC2Eeee @130
_ZN9sakurajin11unit_system6unit_tILm2EEC2Eee @131
_ZN9sakurajin11unit_system6unit_tILm2EEC2Eeee @132
_ZN9sakurajin11unit_system6unit_tILm3EEC2Eee @133
_ZN9sakurajin11unit_system6unit_tILm3EEC2Eeee @134
_ZN9sakurajin11unit_system6unit_tILm4EEC2Eeee @135
_ZN9sakurajin11unit_system6unit_tILm5EEC2Eee @136
_ZN9sakurajin11unit_system6unit_tILm5EEC2Eeee @137
_ZN9sakurajin11unit_system6unit_tILm6EEC2Eee @138
_ZN9sakurajin11unit_system6unit_tILm6EEC2Eeee @139
_ZN9sakurajin11unit_system6unit_tILm7EEC2Eee @140
_ZN9sakurajin11unit_system6unit_tILm7EEC2Eeee @141
_ZN9sakurajin11unit_system9unit_castILm1EEENS0_6unit_tIXT_EEERKS3_ee @142
_ZN9sakurajin11unit_system9unit_castILm2EEENS0_6unit_tIXT_EEERKS3_ee @143
_ZN9sakurajin11unit_system9unit_castILm3EEENS0_6unit_tIXT_EEERKS3_ee @144
_ZN9sakurajin11unit_system9unit_castILm4EEENS0_6unit_tIXT_EEERKS3_ee @145
_ZN9sakurajin11unit_system9unit_castILm5EEENS0_6unit_tIXT_EEERKS3_ee @146
_ZN9sakurajin11unit_system9unit_castILm6EEENS0_6unit_tIXT_EEERKS3_ee @147
_ZN9sakurajin11unit_system9unit_castILm7EEENS0_6unit_tIXT_EEERKS3_ee @148
_ZNK9sakurajin11unit_system4base6amountcveEv @149
 @150
