; Auto-generated by symbol Table Script
EXPORTS
??$unit_cast@$0MJ@@unit_system@sakurajin@@YA?AV?$unit_t@$0MJ@@01@AEBV201@OO@Z @1
??0?$unit_t@$0MJ@@unit_system@sakurajin@@QEAA@OO@Z @2
??0?$unit_t@$0MJ@@unit_system@sakurajin@@QEAA@OOO@Z @3
??0speed@common@unit_system@sakurajin@@QEAA@O@Z @4
??0speed@common@unit_system@sakurajin@@QEAA@OO@Z @5
??0speed@common@unit_system@sakurajin@@QEAA@V?$unit_t@$0MJ@@23@@Z @6
??0speed@common@unit_system@sakurajin@@QEAA@XZ @7
??Dcommon@unit_system@sakurajin@@YA?AVlength@base@12@AEBVspeed@012@AEBVtime_si@412@@Z @8
??Dcommon@unit_system@sakurajin@@YA?AVlength@base@12@AEBVtime_si@412@AEBVspeed@012@@Z @9
??K@YA?AVtime_si@base@unit_system@sakurajin@@AEBVlength@123@AEBVspeed@common@23@@Z @10
??Kcommon@unit_system@sakurajin@@YA?AVspeed@012@AEBVlength@base@12@AEBVtime_si@512@@Z @11
??__K_kmph@literals@common@unit_system@sakurajin@@YA?AVspeed@234@O@Z @12
??__K_kmph@literals@common@unit_system@sakurajin@@YA?AVspeed@234@_K@Z @13
??__K_mps@literals@common@unit_system@sakurajin@@YA?AVspeed@234@O@Z @14
??__K_mps@literals@common@unit_system@sakurajin@@YA?AVspeed@234@_K@Z @15
??$unit_cast@$0HNL@@unit_system@sakurajin@@YA?AV?$unit_t@$0HNL@@01@AEBV201@OO@Z @16
??0?$unit_t@$0HNL@@unit_system@sakurajin@@QEAA@OO@Z @17
??0?$unit_t@$0HNL@@unit_system@sakurajin@@QEAA@OOO@Z @18
??0acceleration@common@unit_system@sakurajin@@QEAA@O@Z @19
??0acceleration@common@unit_system@sakurajin@@QEAA@OO@Z @20
??0acceleration@common@unit_system@sakurajin@@QEAA@V?$unit_t@$0HNL@@23@@Z @21
??0acceleration@common@unit_system@sakurajin@@QEAA@XZ @22
??Dcommon@unit_system@sakurajin@@YA?AVspeed@012@AEBVacceleration@012@AEBVtime_si@base@12@@Z @23
??Dcommon@unit_system@sakurajin@@YA?AVspeed@012@AEBVtime_si@base@12@AEBVacceleration@012@@Z @24
??K@YA?AVtime_si@base@unit_system@sakurajin@@AEBVspeed@common@23@AEBVacceleration@523@@Z @25
??Kcommon@unit_system@sakurajin@@YA?AVacceleration@012@AEBVspeed@012@AEBVtime_si@base@12@@Z @26
??__K_G@literals@common@unit_system@sakurajin@@YA?AVacceleration@234@O@Z @27
??__K_G@literals@common@unit_system@sakurajin@@YA?AVacceleration@234@_K@Z @28
??__K_mps2@literals@common@unit_system@sakurajin@@YA?AVacceleration@234@O@Z @29
??__K_mps2@literals@common@unit_system@sakurajin@@YA?AVacceleration@234@_K@Z @30
??$unit_cast@$0MIB@@unit_system@sakurajin@@YA?AV?$unit_t@$0MIB@@01@AEBV201@OO@Z @31
??0?$unit_t@$0MIB@@unit_system@sakurajin@@QEAA@OO@Z @32
??0?$unit_t@$0MIB@@unit_system@sakurajin@@QEAA@OOO@Z @33
??0momentum@common@unit_system@sakurajin@@QEAA@O@Z @34
??0momentum@common@unit_system@sakurajin@@QEAA@OO@Z @35
??0momentum@common@unit_system@sakurajin@@QEAA@V?$unit_t@$0MIB@@23@@Z @36
??0momentum@common@unit_system@sakurajin@@QEAA@XZ @37
??Dcommon@unit_system@sakurajin@@YA?AVmomentum@012@AEBVmass@base@12@AEBVspeed@012@@Z @38
??Dcommon@unit_system@sakurajin@@YA?AVmomentum@012@AEBVspeed@012@AEBVmass@base@12@@Z @39
??Kcommon@unit_system@sakurajin@@YA?AVmass@base@12@AEBVmomentum@012@AEBVspeed@012@@Z @40
??Kcommon@unit_system@sakurajin@@YA?AVspeed@012@AEBVmomentum@012@AEBVmass@base@12@@Z @41
??__K_kgmps@literals@common@unit_system@sakurajin@@YA?AVmomentum@234@O@Z @42
??__K_kgmps@literals@common@unit_system@sakurajin@@YA?AVmomentum@234@_K@Z @43
??$unit_cast@$0HNAL@@unit_system@sakurajin@@YA?AV?$unit_t@$0HNAL@@01@AEBV201@OO@Z @44
??0?$unit_t@$0HNAL@@unit_system@sakurajin@@QEAA@OO@Z @45
??0?$unit_t@$0HNAL@@unit_system@sakurajin@@QEAA@OOO@Z @46
??0force@common@unit_system@sakurajin@@QEAA@O@Z @47
??0force@common@unit_system@sakurajin@@QEAA@OO@Z @48
??0force@common@unit_system@sakurajin@@QEAA@V?$unit_t@$0HNAL@@23@@Z @49
??0force@common@unit_system@sakurajin@@QEAA@XZ @50
??Dcommon@unit_system@sakurajin@@YA?AVforce@012@AEBVacceleration@012@AEBVmass@base@12@@Z @51
??Dcommon@unit_system@sakurajin@@YA?AVforce@012@AEBVmass@base@12@AEBVacceleration@012@@Z @52
??Dcommon@unit_system@sakurajin@@YA?AVmomentum@012@AEBVforce@012@AEBVtime_si@base@12@@Z @53
??Dcommon@unit_system@sakurajin@@YA?AVmomentum@012@AEBVtime_si@base@12@AEBVforce@012@@Z @54
??Kcommon@unit_system@sakurajin@@YA?AVacceleration@012@AEBVforce@012@AEBVmass@base@12@@Z @55
??Kcommon@unit_system@sakurajin@@YA?AVforce@012@AEBVmomentum@012@AEBVtime_si@base@12@@Z @56
??Kcommon@unit_system@sakurajin@@YA?AVmass@base@12@AEBVforce@012@AEBVacceleration@012@@Z @57
??Kcommon@unit_system@sakurajin@@YA?AVtime_si@base@12@AEBVmomentum@012@AEBVforce@012@@Z @58
??__K_N@literals@common@unit_system@sakurajin@@YA?AVforce@234@O@Z @59
??__K_N@literals@common@unit_system@sakurajin@@YA?AVforce@234@_K@Z @60
??$unit_cast@$07@unit_system@sakurajin@@YA?AV?$unit_t@$07@01@AEBV201@OO@Z @61
??0?$unit_t@$07@unit_system@sakurajin@@QEAA@OO@Z @62
??0?$unit_t@$07@unit_system@sakurajin@@QEAA@OOO@Z @63
??0energy@common@unit_system@sakurajin@@QEAA@O@Z @64
??0energy@common@unit_system@sakurajin@@QEAA@OO@Z @65
??0energy@common@unit_system@sakurajin@@QEAA@V?$unit_t@$07@23@@Z @66
??0energy@common@unit_system@sakurajin@@QEAA@XZ @67
??Dcommon@unit_system@sakurajin@@YA?AVenergy@012@AEBVforce@012@AEBVlength@base@12@@Z @68
??Dcommon@unit_system@sakurajin@@YA?AVenergy@012@AEBVlength@base@12@AEBVforce@012@@Z @69
??Dcommon@unit_system@sakurajin@@YA?AVenergy@012@AEBVmomentum@012@AEBVspeed@012@@Z @70
??Dcommon@unit_system@sakurajin@@YA?AVenergy@012@AEBVspeed@012@AEBVmomentum@012@@Z @71
??Kcommon@unit_system@sakurajin@@YA?AVforce@012@AEBVenergy@012@AEBVlength@base@12@@Z @72
??Kcommon@unit_system@sakurajin@@YA?AVlength@base@12@AEBVenergy@012@AEBVforce@012@@Z @73
??Kcommon@unit_system@sakurajin@@YA?AVmomentum@012@AEBVenergy@012@AEBVspeed@012@@Z @74
??Kcommon@unit_system@sakurajin@@YA?AVspeed@012@AEBVenergy@012@AEBVmomentum@012@@Z @75
??__K_J@literals@common@unit_system@sakurajin@@YA?AVenergy@234@O@Z @76
??__K_J@literals@common@unit_system@sakurajin@@YA?AVenergy@234@_K@Z @77
??$unit_cast@$0DCB@@unit_system@sakurajin@@YA?AV?$unit_t@$0DCB@@01@AEBV201@OO@Z @78
??0?$unit_t@$0DCB@@unit_system@sakurajin@@QEAA@OO@Z @79
??0?$unit_t@$0DCB@@unit_system@sakurajin@@QEAA@OOO@Z @80
??0power@common@unit_system@sakurajin@@QEAA@O@Z @81
??0power@common@unit_system@sakurajin@@QEAA@OO@Z @82
??0power@common@unit_system@sakurajin@@QEAA@V?$unit_t@$0DCB@@23@@Z @83
??0power@common@unit_system@sakurajin@@QEAA@XZ @84
??Dcommon@unit_system@sakurajin@@YA?AVenergy@012@AEBVpower@012@AEBVtime_si@base@12@@Z @85
??Dcommon@unit_system@sakurajin@@YA?AVenergy@012@AEBVtime_si@base@12@AEBVpower@012@@Z @86
??Dcommon@unit_system@sakurajin@@YA?AVpower@012@AEBVforce@012@AEBVspeed@012@@Z @87
??Dcommon@unit_system@sakurajin@@YA?AVpower@012@AEBVspeed@012@AEBVforce@012@@Z @88
??Kcommon@unit_system@sakurajin@@YA?AVforce@012@AEBVpower@012@AEBVspeed@012@@Z @89
??Kcommon@unit_system@sakurajin@@YA?AVpower@012@AEBVenergy@012@AEBVtime_si@base@12@@Z @90
??Kcommon@unit_system@sakurajin@@YA?AVspeed@012@AEBVpower@012@AEBVforce@012@@Z @91
??Kcommon@unit_system@sakurajin@@YA?AVtime_si@base@12@AEBVenergy@012@AEBVpower@012@@Z @92
??__K_W@literals@common@unit_system@sakurajin@@YA?AVpower@234@O@Z @93
??__K_W@literals@common@unit_system@sakurajin@@YA?AVpower@234@_K@Z @94
??6common@unit_system@sakurajin@@YAAEAV?$basic_ostream@DU?$char_traits@D@std@@@std@@AEAV34@AEBVacceleration@012@@Z @95
??6common@unit_system@sakurajin@@YAAEAV?$basic_ostream@DU?$char_traits@D@std@@@std@@AEAV34@AEBVenergy@012@@Z @96
??6common@unit_system@sakurajin@@YAAEAV?$basic_ostream@DU?$char_traits@D@std@@@std@@AEAV34@AEBVforce@012@@Z @97
??6common@unit_system@sakurajin@@YAAEAV?$basic_ostream@DU?$char_traits@D@std@@@std@@AEAV34@AEBVmomentum@012@@Z @98
??6common@unit_system@sakurajin@@YAAEAV?$basic_ostream@DU?$char_traits@D@std@@@std@@AEAV34@AEBVpower@012@@Z @99
??6common@unit_system@sakurajin@@YAAEAV?$basic_ostream@DU?$char_traits@D@std@@@std@@AEAV34@AEBVspeed@012@@Z @100
__imp_??0mass@base@unit_system@sakurajin@@QEAA@OO@Z @101
__imp_??0time_si@base@unit_system@sakurajin@@QEAA@OO@Z @102
__imp_??0length@base@unit_system@sakurajin@@QEAA@OO@Z @103
