; Auto-generated by symbol Table Script
EXPORTS unit-system-common
_ZdvRKN9sakurajin11unit_system4base6lengthERKNS0_6common5speedE @0
_ZdvRKN9sakurajin11unit_system6common5speedERKNS1_12accelerationE @1
_ZN9sakurajin11unit_system6common12accelerationC1Ee @2
_ZN9sakurajin11unit_system6common12accelerationC1Eee @3
_ZN9sakurajin11unit_system6common12accelerationC1ENS0_6unit_tILm2011EEE @4
_ZN9sakurajin11unit_system6common12accelerationC1Ev @5
_ZN9sakurajin11unit_system6common12accelerationC2Ee @6
_ZN9sakurajin11unit_system6common12accelerationC2Eee @7
_ZN9sakurajin11unit_system6common12accelerationC2ENS0_6unit_tILm2011EEE @8
_ZN9sakurajin11unit_system6common12accelerationC2Ev @9
_ZN9sakurajin11unit_system6common5forceC1Ee @10
_ZN9sakurajin11unit_system6common5forceC1Eee @11
_ZN9sakurajin11unit_system6common5forceC1ENS0_6unit_tILm32011EEE @12
_ZN9sakurajin11unit_system6common5forceC1Ev @13
_ZN9sakurajin11unit_system6common5forceC2Ee @14
_ZN9sakurajin11unit_system6common5forceC2Eee @15
_ZN9sakurajin11unit_system6common5forceC2ENS0_6unit_tILm32011EEE @16
_ZN9sakurajin11unit_system6common5forceC2Ev @17
_ZN9sakurajin11unit_system6common5powerC1Ee @18
_ZN9sakurajin11unit_system6common5powerC1Eee @19
_ZN9sakurajin11unit_system6common5powerC1ENS0_6unit_tILm801EEE @20
_ZN9sakurajin11unit_system6common5powerC1Ev @21
_ZN9sakurajin11unit_system6common5powerC2Ee @22
_ZN9sakurajin11unit_system6common5powerC2Eee @23
_ZN9sakurajin11unit_system6common5powerC2ENS0_6unit_tILm801EEE @24
_ZN9sakurajin11unit_system6common5powerC2Ev @25
_ZN9sakurajin11unit_system6common5speedC1Ee @26
_ZN9sakurajin11unit_system6common5speedC1Eee @27
_ZN9sakurajin11unit_system6common5speedC1ENS0_6unit_tILm201EEE @28
_ZN9sakurajin11unit_system6common5speedC1Ev @29
_ZN9sakurajin11unit_system6common5speedC2Ee @30
_ZN9sakurajin11unit_system6common5speedC2Eee @31
_ZN9sakurajin11unit_system6common5speedC2ENS0_6unit_tILm201EEE @32
_ZN9sakurajin11unit_system6common5speedC2Ev @33
_ZN9sakurajin11unit_system6common6energyC1Ee @34
_ZN9sakurajin11unit_system6common6energyC1Eee @35
_ZN9sakurajin11unit_system6common6energyC1ENS0_6unit_tILm8EEE @36
_ZN9sakurajin11unit_system6common6energyC1Ev @37
_ZN9sakurajin11unit_system6common6energyC2Ee @38
_ZN9sakurajin11unit_system6common6energyC2Eee @39
_ZN9sakurajin11unit_system6common6energyC2ENS0_6unit_tILm8EEE @40
_ZN9sakurajin11unit_system6common6energyC2Ev @41
_ZN9sakurajin11unit_system6common8literalsli2_GEe @42
_ZN9sakurajin11unit_system6common8literalsli2_GEy @43
_ZN9sakurajin11unit_system6common8literalsli2_JEe @44
_ZN9sakurajin11unit_system6common8literalsli2_JEy @45
_ZN9sakurajin11unit_system6common8literalsli2_NEe @46
_ZN9sakurajin11unit_system6common8literalsli2_NEy @47
_ZN9sakurajin11unit_system6common8literalsli2_WEe @48
_ZN9sakurajin11unit_system6common8literalsli2_WEy @49
_ZN9sakurajin11unit_system6common8literalsli4_mpsEe @50
_ZN9sakurajin11unit_system6common8literalsli4_mpsEy @51
_ZN9sakurajin11unit_system6common8literalsli5_kmphEe @52
_ZN9sakurajin11unit_system6common8literalsli5_kmphEy @53
_ZN9sakurajin11unit_system6common8literalsli5_mps2Ee @54
_ZN9sakurajin11unit_system6common8literalsli5_mps2Ey @55
_ZN9sakurajin11unit_system6common8literalsli6_kgmpsEe @56
_ZN9sakurajin11unit_system6common8literalsli6_kgmpsEy @57
_ZN9sakurajin11unit_system6common8momentumC1Ee @58
_ZN9sakurajin11unit_system6common8momentumC1Eee @59
_ZN9sakurajin11unit_system6common8momentumC1ENS0_6unit_tILm3201EEE @60
_ZN9sakurajin11unit_system6common8momentumC1Ev @61
_ZN9sakurajin11unit_system6common8momentumC2Ee @62
_ZN9sakurajin11unit_system6common8momentumC2Eee @63
_ZN9sakurajin11unit_system6common8momentumC2ENS0_6unit_tILm3201EEE @64
_ZN9sakurajin11unit_system6common8momentumC2Ev @65
_ZN9sakurajin11unit_system6commondvERKNS0_4base6lengthERKNS2_7time_siE @66
_ZN9sakurajin11unit_system6commondvERKNS1_5forceERKNS0_4base4massE @67
_ZN9sakurajin11unit_system6commondvERKNS1_5forceERKNS1_12accelerationE @68
_ZN9sakurajin11unit_system6commondvERKNS1_5powerERKNS1_5forceE @69
_ZN9sakurajin11unit_system6commondvERKNS1_5powerERKNS1_5speedE @70
_ZN9sakurajin11unit_system6commondvERKNS1_5speedERKNS0_4base7time_siE @71
_ZN9sakurajin11unit_system6commondvERKNS1_6energyERKNS0_4base6lengthE @72
_ZN9sakurajin11unit_system6commondvERKNS1_6energyERKNS0_4base7time_siE @73
_ZN9sakurajin11unit_system6commondvERKNS1_6energyERKNS1_5forceE @74
_ZN9sakurajin11unit_system6commondvERKNS1_6energyERKNS1_5powerE @75
_ZN9sakurajin11unit_system6commondvERKNS1_6energyERKNS1_5speedE @76
_ZN9sakurajin11unit_system6commondvERKNS1_6energyERKNS1_8momentumE @77
_ZN9sakurajin11unit_system6commondvERKNS1_8momentumERKNS0_4base4massE @78
_ZN9sakurajin11unit_system6commondvERKNS1_8momentumERKNS0_4base7time_siE @79
_ZN9sakurajin11unit_system6commondvERKNS1_8momentumERKNS1_5forceE @80
_ZN9sakurajin11unit_system6commondvERKNS1_8momentumERKNS1_5speedE @81
_ZN9sakurajin11unit_system6commonlsERSoRKNS1_12accelerationE @82
_ZN9sakurajin11unit_system6commonlsERSoRKNS1_5forceE @83
_ZN9sakurajin11unit_system6commonlsERSoRKNS1_5powerE @84
_ZN9sakurajin11unit_system6commonlsERSoRKNS1_5speedE @85
_ZN9sakurajin11unit_system6commonlsERSoRKNS1_6energyE @86
_ZN9sakurajin11unit_system6commonlsERSoRKNS1_8momentumE @87
_ZN9sakurajin11unit_system6commonmlERKNS0_4base4massERKNS1_12accelerationE @88
_ZN9sakurajin11unit_system6commonmlERKNS0_4base4massERKNS1_5speedE @89
_ZN9sakurajin11unit_system6commonmlERKNS0_4base6lengthERKNS1_5forceE @90
_ZN9sakurajin11unit_system6commonmlERKNS0_4base7time_siERKNS1_12accelerationE @91
_ZN9sakurajin11unit_system6commonmlERKNS0_4base7time_siERKNS1_5forceE @92
_ZN9sakurajin11unit_system6commonmlERKNS0_4base7time_siERKNS1_5powerE @93
_ZN9sakurajin11unit_system6commonmlERKNS0_4base7time_siERKNS1_5speedE @94
_ZN9sakurajin11unit_system6commonmlERKNS1_12accelerationERKNS0_4base4massE @95
_ZN9sakurajin11unit_system6commonmlERKNS1_12accelerationERKNS0_4base7time_siE @96
_ZN9sakurajin11unit_system6commonmlERKNS1_5forceERKNS0_4base6lengthE @97
_ZN9sakurajin11unit_system6commonmlERKNS1_5forceERKNS0_4base7time_siE @98
_ZN9sakurajin11unit_system6commonmlERKNS1_5forceERKNS1_5speedE @99
_ZN9sakurajin11unit_system6commonmlERKNS1_5powerERKNS0_4base7time_siE @100
_ZN9sakurajin11unit_system6commonmlERKNS1_5speedERKNS0_4base4massE @101
_ZN9sakurajin11unit_system6commonmlERKNS1_5speedERKNS0_4base7time_siE @102
_ZN9sakurajin11unit_system6commonmlERKNS1_5speedERKNS1_5forceE @103
_ZN9sakurajin11unit_system6commonmlERKNS1_5speedERKNS1_8momentumE @104
_ZN9sakurajin11unit_system6commonmlERKNS1_8momentumERKNS1_5speedE @105
_ZN9sakurajin11unit_system6unit_tILm1EEC2Eeee @106
_ZN9sakurajin11unit_system6unit_tILm2011EEC2Eee @107
_ZN9sakurajin11unit_system6unit_tILm2011EEC2Eeee @108
_ZN9sakurajin11unit_system6unit_tILm201EEC2Eee @109
_ZN9sakurajin11unit_system6unit_tILm201EEC2Eeee @110
_ZN9sakurajin11unit_system6unit_tILm2EEC2Eeee @111
_ZN9sakurajin11unit_system6unit_tILm32011EEC2Eee @112
_ZN9sakurajin11unit_system6unit_tILm32011EEC2Eeee @113
_ZN9sakurajin11unit_system6unit_tILm3201EEC2Eee @114
_ZN9sakurajin11unit_system6unit_tILm3201EEC2Eeee @115
_ZN9sakurajin11unit_system6unit_tILm3EEC2Eeee @116
_ZN9sakurajin11unit_system6unit_tILm801EEC2Eee @117
_ZN9sakurajin11unit_system6unit_tILm801EEC2Eeee @118
_ZN9sakurajin11unit_system6unit_tILm8EEC2Eee @119
_ZN9sakurajin11unit_system6unit_tILm8EEC2Eeee @120
_ZN9sakurajin11unit_system9unit_castILm1EEENS0_6unit_tIXT_EEERKS3_ee @121
_ZN9sakurajin11unit_system9unit_castILm2011EEENS0_6unit_tIXT_EEERKS3_ee @122
_ZN9sakurajin11unit_system9unit_castILm201EEENS0_6unit_tIXT_EEERKS3_ee @123
_ZN9sakurajin11unit_system9unit_castILm2EEENS0_6unit_tIXT_EEERKS3_ee @124
_ZN9sakurajin11unit_system9unit_castILm32011EEENS0_6unit_tIXT_EEERKS3_ee @125
_ZN9sakurajin11unit_system9unit_castILm3201EEENS0_6unit_tIXT_EEERKS3_ee @126
_ZN9sakurajin11unit_system9unit_castILm3EEENS0_6unit_tIXT_EEERKS3_ee @127
_ZN9sakurajin11unit_system9unit_castILm801EEENS0_6unit_tIXT_EEERKS3_ee @128
_ZN9sakurajin11unit_system9unit_castILm8EEENS0_6unit_tIXT_EEERKS3_ee @129
